; ModuleID = 'source-C-CXX/46/2490.c'
source_filename = "source-C-CXX/46/2490.c"
target datalayout = "e-m:e-p270:32:32-p271:32:32-p272:64:64-i64:64-f80:128-n8:16:32:64-S128"
target triple = "x86_64-pc-linux-gnu"

@.str = private unnamed_addr constant [3 x i8] c"%d\00", align 1
@.str.1 = private unnamed_addr constant [4 x i8] c"%d \00", align 1

; Function Attrs: nofree nounwind sspstrong uwtable
define dso_local i32 @main() local_unnamed_addr #0 {
  %1 = alloca i32, align 4
  %2 = alloca [100 x i32], align 16
  %3 = bitcast i32* %1 to i8*
  call void @llvm.lifetime.start.p0i8(i64 4, i8* nonnull %3) #3
  %4 = bitcast [100 x i32]* %2 to i8*
  call void @llvm.lifetime.start.p0i8(i64 400, i8* nonnull %4) #3
  %5 = call i32 (i8*, ...) @__isoc99_scanf(i8* getelementptr inbounds ([3 x i8], [3 x i8]* @.str, i64 0, i64 0), i32* nonnull %1)
  %6 = load i32, i32* %1, align 4, !tbaa !5
  %7 = icmp sgt i32 %6, 1
  br i1 %7, label %11, label %8

8:                                                ; preds = %0
  %9 = add nsw i32 %6, -1
  %10 = sext i32 %9 to i64
  br label %20

11:                                               ; preds = %0, %11
  %12 = phi i64 [ %15, %11 ], [ 0, %0 ]
  %13 = getelementptr inbounds [100 x i32], [100 x i32]* %2, i64 0, i64 %12
  %14 = call i32 (i8*, ...) @__isoc99_scanf(i8* getelementptr inbounds ([4 x i8], [4 x i8]* @.str.1, i64 0, i64 0), i32* nonnull %13)
  %15 = add nuw nsw i64 %12, 1
  %16 = load i32, i32* %1, align 4, !tbaa !5
  %17 = add nsw i32 %16, -1
  %18 = sext i32 %17 to i64
  %19 = icmp slt i64 %15, %18
  br i1 %19, label %11, label %20, !llvm.loop !9

20:                                               ; preds = %11, %8
  %21 = phi i64 [ %10, %8 ], [ %18, %11 ]
  %22 = getelementptr inbounds [100 x i32], [100 x i32]* %2, i64 0, i64 %21
  %23 = call i32 (i8*, ...) @__isoc99_scanf(i8* getelementptr inbounds ([3 x i8], [3 x i8]* @.str, i64 0, i64 0), i32* nonnull %22)
  %24 = load i32, i32* %1, align 4, !tbaa !5
  %25 = icmp sgt i32 %24, 1
  br i1 %25, label %26, label %30

26:                                               ; preds = %20
  %27 = zext i32 %24 to i64
  %28 = add nsw i64 %27, -1
  br label %33

29:                                               ; preds = %33
  br i1 %25, label %43, label %30

30:                                               ; preds = %20, %29
  %31 = add nsw i32 %24, -1
  %32 = sext i32 %31 to i64
  br label %53

33:                                               ; preds = %26, %33
  %34 = phi i64 [ 0, %26 ], [ %40, %33 ]
  %35 = phi i64 [ %28, %26 ], [ %41, %33 ]
  %36 = getelementptr inbounds [100 x i32], [100 x i32]* %2, i64 0, i64 %35
  %37 = load i32, i32* %36, align 4, !tbaa !5
  %38 = getelementptr inbounds [100 x i32], [100 x i32]* %2, i64 0, i64 %34
  %39 = load i32, i32* %38, align 4, !tbaa !5
  store i32 %39, i32* %36, align 4, !tbaa !5
  store i32 %37, i32* %38, align 4, !tbaa !5
  %40 = add nuw nsw i64 %34, 1
  %41 = add nsw i64 %35, -1
  %42 = icmp slt i64 %40, %41
  br i1 %42, label %33, label %29, !llvm.loop !11

43:                                               ; preds = %29, %43
  %44 = phi i64 [ %48, %43 ], [ 0, %29 ]
  %45 = getelementptr inbounds [100 x i32], [100 x i32]* %2, i64 0, i64 %44
  %46 = load i32, i32* %45, align 4, !tbaa !5
  %47 = call i32 (i8*, ...) @printf(i8* nonnull dereferenceable(1) getelementptr inbounds ([4 x i8], [4 x i8]* @.str.1, i64 0, i64 0), i32 %46)
  %48 = add nuw nsw i64 %44, 1
  %49 = load i32, i32* %1, align 4, !tbaa !5
  %50 = add nsw i32 %49, -1
  %51 = sext i32 %50 to i64
  %52 = icmp slt i64 %48, %51
  br i1 %52, label %43, label %53, !llvm.loop !12

53:                                               ; preds = %43, %30
  %54 = phi i64 [ %32, %30 ], [ %51, %43 ]
  %55 = getelementptr inbounds [100 x i32], [100 x i32]* %2, i64 0, i64 %54
  %56 = load i32, i32* %55, align 4, !tbaa !5
  %57 = call i32 (i8*, ...) @printf(i8* nonnull dereferenceable(1) getelementptr inbounds ([3 x i8], [3 x i8]* @.str, i64 0, i64 0), i32 %56)
  call void @llvm.lifetime.end.p0i8(i64 400, i8* nonnull %4) #3
  call void @llvm.lifetime.end.p0i8(i64 4, i8* nonnull %3) #3
  ret i32 0
}

; Function Attrs: argmemonly mustprogress nofree nosync nounwind willreturn
declare void @llvm.lifetime.start.p0i8(i64 immarg, i8* nocapture) #1

; Function Attrs: nofree nounwind
declare noundef i32 @__isoc99_scanf(i8* nocapture noundef readonly, ...) local_unnamed_addr #2

; Function Attrs: nofree nounwind
declare noundef i32 @printf(i8* nocapture noundef readonly, ...) local_unnamed_addr #2

; Function Attrs: argmemonly mustprogress nofree nosync nounwind willreturn
declare void @llvm.lifetime.end.p0i8(i64 immarg, i8* nocapture) #1


!llvm.module.flags = !{!0, !1, !2, !3}
!llvm.ident = !{!4}

!0 = !{i32 1, !"wchar_size", i32 4}
!1 = !{i32 7, !"PIC Level", i32 2}
!2 = !{i32 7, !"PIE Level", i32 2}
!3 = !{i32 7, !"uwtable", i32 1}
!4 = !{!"clang version 13.0.0"}
!5 = !{!6, !6, i64 0}
!6 = !{!"int", !7, i64 0}
!7 = !{!"omnipotent char", !8, i64 0}
!8 = !{!"Simple C/C++ TBAA"}
!9 = distinct !{!9, !10}
!10 = !{!"llvm.loop.mustprogress"}
!11 = distinct !{!11, !10}
!12 = distinct !{!12, !10}
